target datalayout = "e-m:e-p270:32:32-p271:32:32-p272:64:64-i64:64-i128:128-f80:128-n8:16:32:64-S128"
target triple = "x86_64-pc-linux-gnu"

%struct.hash_foreach_arg = type { i64, ptr, i64 }

@rb_eRuntimeError = external global i64, align 8
@.str.98 = private unnamed_addr constant [33 x i8] c"rehash occurred during iteration\00", align 1

; Function Attrs: nounwind sspstrong uwtable
define internal i32 @hash_iter_status_check(i32 noundef %0) #0 {
  %2 = alloca i32, align 4
  %3 = alloca i32, align 4
  store i32 %0, ptr %3, align 4, !tbaa !16
  %4 = load i32, ptr %3, align 4, !tbaa !16
  switch i32 %4, label %7 [
    i32 2, label %5
    i32 0, label %7
    i32 1, label %6
  ]

5:                                                ; preds = %1
  store i32 2, ptr %2, align 4
  br label %8

6:                                                ; preds = %1
  store i32 1, ptr %2, align 4
  br label %8

7:                                                ; preds = %1, %1
  store i32 3, ptr %2, align 4
  br label %8

8:                                                ; preds = %7, %6, %5
  %9 = load i32, ptr %2, align 4
  ret i32 %9
}

; Function Attrs: inlinehint nounwind sspstrong uwtable
define internal nonnull ptr @RHASH_ST_TABLE(i64 noundef %0) #2 {
  %2 = alloca i64, align 8
  store i64 %0, ptr %2, align 8, !tbaa !7
  %3 = load i64, ptr %2, align 8, !tbaa !7
  %4 = add i64 %3, 24
  %5 = inttoptr i64 %4 to ptr
  ret ptr %5
}

; Function Attrs: nounwind sspstrong uwtable
define internal i32 @hash_foreach_iter(i64 noundef %0, i64 noundef %1, i64 noundef %2, i32 noundef %3) #0 {
  %5 = alloca i32, align 4
  %6 = alloca i64, align 8
  %7 = alloca i64, align 8
  %8 = alloca i64, align 8
  %9 = alloca i32, align 4
  %10 = alloca ptr, align 8
  %11 = alloca i32, align 4
  %12 = alloca ptr, align 8
  %13 = alloca i32, align 4
  store i64 %0, ptr %6, align 8, !tbaa !7
  store i64 %1, ptr %7, align 8, !tbaa !7
  store i64 %2, ptr %8, align 8, !tbaa !7
  store i32 %3, ptr %9, align 4, !tbaa !16
  call void @llvm.lifetime.start.p0(i64 8, ptr %10) #28
  %14 = load i64, ptr %8, align 8, !tbaa !7
  %15 = inttoptr i64 %14 to ptr
  store ptr %15, ptr %10, align 8, !tbaa !161
  %16 = load i32, ptr %9, align 4, !tbaa !16
  %17 = icmp ne i32 %16, 0
  br i1 %17, label %18, label %19

18:                                               ; preds = %4
  store i32 1, ptr %5, align 4
  store i32 1, ptr %11, align 4
  br label %44

19:                                               ; preds = %4
  call void @llvm.lifetime.start.p0(i64 8, ptr %12) #28
  %20 = load ptr, ptr %10, align 8, !tbaa !161
  %21 = getelementptr inbounds nuw %struct.hash_foreach_arg, ptr %20, i32 0, i32 0
  %22 = load i64, ptr %21, align 8, !tbaa !54
  %23 = call nonnull ptr @RHASH_ST_TABLE(i64 noundef %22)
  store ptr %23, ptr %12, align 8, !tbaa !35
  call void @llvm.lifetime.start.p0(i64 4, ptr %13) #28
  %24 = load ptr, ptr %10, align 8, !tbaa !161
  %25 = getelementptr inbounds nuw %struct.hash_foreach_arg, ptr %24, i32 0, i32 1
  %26 = load ptr, ptr %25, align 8, !tbaa !56
  %27 = load i64, ptr %6, align 8, !tbaa !7
  %28 = load i64, ptr %7, align 8, !tbaa !7
  %29 = load ptr, ptr %10, align 8, !tbaa !161
  %30 = getelementptr inbounds nuw %struct.hash_foreach_arg, ptr %29, i32 0, i32 2
  %31 = load i64, ptr %30, align 8, !tbaa !57
  %32 = call i32 %26(i64 noundef %27, i64 noundef %28, i64 noundef %31)
  store i32 %32, ptr %13, align 4, !tbaa !16
  %33 = load ptr, ptr %10, align 8, !tbaa !161
  %34 = getelementptr inbounds nuw %struct.hash_foreach_arg, ptr %33, i32 0, i32 0
  %35 = load i64, ptr %34, align 8, !tbaa !54
  %36 = call nonnull ptr @RHASH_ST_TABLE(i64 noundef %35)
  %37 = load ptr, ptr %12, align 8, !tbaa !35
  %38 = icmp ne ptr %36, %37
  br i1 %38, label %39, label %41

39:                                               ; preds = %19
  %40 = load i64, ptr @rb_eRuntimeError, align 8, !tbaa !7
  call void (i64, ptr, ...) @rb_raise(i64 noundef %40, ptr noundef @.str.98) #30
  unreachable

41:                                               ; preds = %19
  %42 = load i32, ptr %13, align 4, !tbaa !16
  %43 = call i32 @hash_iter_status_check(i32 noundef %42)
  store i32 %43, ptr %5, align 4
  store i32 1, ptr %11, align 4
  call void @llvm.lifetime.end.p0(i64 4, ptr %13) #28
  call void @llvm.lifetime.end.p0(i64 8, ptr %12) #28
  br label %44

44:                                               ; preds = %41, %18
  call void @llvm.lifetime.end.p0(i64 8, ptr %10) #28
  %45 = load i32, ptr %5, align 4
  ret i32 %45
}